target datalayout = "e-m:e-p270:32:32-p271:32:32-p272:64:64-i64:64-i128:128-f80:128-n8:16:32:64-S128"
target triple = "x86_64-unknown-linux-gnu"

%class.card2bv = type { %class.dependent_expr_simplifier, %"struct.card2bv::stats", %class.params_ref }
%class.dependent_expr_simplifier = type { ptr, ptr, ptr, ptr }
%"struct.card2bv::stats" = type { i32 }
%class.params_ref = type { ptr }
%class.pb2bv_rewriter = type { ptr }

@.str.1 = private unnamed_addr constant [29 x i8] c"keep_cardinality_constraints\00", align 1
@.str.2 = private unnamed_addr constant [42 x i8] c"retain cardinality constraints for solver\00", align 1
@.str.3 = private unnamed_addr constant [5 x i8] c"true\00", align 1

; Function Attrs: mustprogress uwtable
define hidden void @_ZN7card2bv20collect_param_descrsER12param_descrs(ptr noundef nonnull align 8 dereferenceable(48) %this, ptr noundef nonnull align 8 dereferenceable(8) %r) unnamed_addr #4 align 2 personality ptr @__gxx_personality_v0 {
entry:
  %this.addr = alloca ptr, align 8
  %r.addr = alloca ptr, align 8
  %rw = alloca %class.pb2bv_rewriter, align 8
  %exn.slot = alloca ptr, align 8
  %ehselector.slot = alloca i32, align 4
  store ptr %this, ptr %this.addr, align 8
  store ptr %r, ptr %r.addr, align 8
  %this1 = load ptr, ptr %this.addr, align 8
  %0 = load ptr, ptr %r.addr, align 8
  call void @_ZN12param_descrs6insertEPKc12cmd_arg_kindS1_S1_S1_(ptr noundef nonnull align 8 dereferenceable(8) %0, ptr noundef @.str.1, i32 noundef 1, ptr noundef @.str.2, ptr noundef @.str.3, ptr noundef null)
  %m = getelementptr inbounds %class.dependent_expr_simplifier, ptr %this1, i32 0, i32 1
  %1 = load ptr, ptr %m, align 8
  %m_params = getelementptr inbounds %class.card2bv, ptr %this1, i32 0, i32 2
  call void @_ZN14pb2bv_rewriterC1ER11ast_managerRK10params_ref(ptr noundef nonnull align 8 dereferenceable(8) %rw, ptr noundef nonnull align 8 dereferenceable(976) %1, ptr noundef nonnull align 8 dereferenceable(8) %m_params)
  %2 = load ptr, ptr %r.addr, align 8
  invoke void @_ZNK14pb2bv_rewriter20collect_param_descrsER12param_descrs(ptr noundef nonnull align 8 dereferenceable(8) %rw, ptr noundef nonnull align 8 dereferenceable(8) %2)
          to label %invoke.cont unwind label %lpad

invoke.cont:                                      ; preds = %entry
  call void @_ZN14pb2bv_rewriterD1Ev(ptr noundef nonnull align 8 dereferenceable(8) %rw) #3
  ret void

lpad:                                             ; preds = %entry
  %3 = landingpad { ptr, i32 }
          cleanup
  %4 = extractvalue { ptr, i32 } %3, 0
  store ptr %4, ptr %exn.slot, align 8
  %5 = extractvalue { ptr, i32 } %3, 1
  store i32 %5, ptr %ehselector.slot, align 4
  call void @_ZN14pb2bv_rewriterD1Ev(ptr noundef nonnull align 8 dereferenceable(8) %rw) #3
  br label %eh.resume

eh.resume:                                        ; preds = %lpad
  %exn = load ptr, ptr %exn.slot, align 8
  %sel = load i32, ptr %ehselector.slot, align 4
  %lpad.val = insertvalue { ptr, i32 } poison, ptr %exn, 0
  %lpad.val2 = insertvalue { ptr, i32 } %lpad.val, i32 %sel, 1
  resume { ptr, i32 } %lpad.val2
}