; Function Attrs: mustprogress uwtable
define hidden void @_ZN7card2bv20collect_param_descrsER12param_descrs(ptr noundef nonnull align 8 dereferenceable(48) %this, ptr noundef nonnull align 8 dereferenceable(8) %r) unnamed_addr #3 align 2 personality ptr @__gxx_personality_v0 {
entry:
  %rw = alloca %class.pb2bv_rewriter, align 8
  tail call void @_ZN12param_descrs6insertEPKc12cmd_arg_kindS1_S1_S1_(ptr noundef nonnull align 8 dereferenceable(8) %r, ptr noundef nonnull @.str.1, i32 noundef 1, ptr noundef nonnull @.str.2, ptr noundef nonnull @.str.3, ptr noundef null)
  %m = getelementptr inbounds i8, ptr %this, i64 8
  %0 = load ptr, ptr %m, align 8
  %m_params = getelementptr inbounds i8, ptr %this, i64 40
  call void @_ZN14pb2bv_rewriterC1ER11ast_managerRK10params_ref(ptr noundef nonnull align 8 dereferenceable(8) %rw, ptr noundef nonnull align 8 dereferenceable(976) %0, ptr noundef nonnull align 8 dereferenceable(8) %m_params)
  invoke void @_ZNK14pb2bv_rewriter20collect_param_descrsER12param_descrs(ptr noundef nonnull align 8 dereferenceable(8) %rw, ptr noundef nonnull align 8 dereferenceable(8) %r)
          to label %invoke.cont unwind label %lpad

invoke.cont:                                      ; preds = %entry
  call void @_ZN14pb2bv_rewriterD1Ev(ptr noundef nonnull align 8 dereferenceable(8) %rw) #12
  ret void

lpad:                                             ; preds = %entry
  %1 = landingpad { ptr, i32 }
          cleanup
  call void @_ZN14pb2bv_rewriterD1Ev(ptr noundef nonnull align 8 dereferenceable(8) %rw) #12
  resume { ptr, i32 } %1
}